target datalayout = "e-m:e-p270:32:32-p271:32:32-p272:64:64-i64:64-i128:128-f80:128-n8:16:32:64-S128"
target triple = "x86_64-pc-linux-gnu"

%struct.H5EA_hdr_t = type { %struct.H5C_cache_entry_t, %struct.H5EA_create_t, i64, %struct.H5EA_stat_t, %struct.anon.1, i64, i64, i64, ptr, i64, i8, i64, i64, i8, i64, ptr, i64, ptr, i8, ptr, ptr }
%struct.H5C_cache_entry_t = type { ptr, i64, i64, ptr, i8, ptr, i8, i8, i8, i8, i32, i8, i8, i8, i8, i8, i32, ptr, i32, i32, i32, i32, i32, i8, i8, ptr, ptr, ptr, ptr, ptr, ptr, i8, i32, i8, i64, ptr, i64, i64, i32, i8, i32, i32, i8, ptr, ptr, ptr }
%struct.H5EA_create_t = type { ptr, i8, i8, i8, i8, i8, i8 }
%struct.H5EA_stat_t = type { %struct.anon, %struct.anon.0 }
%struct.anon = type { i64, i64, i64 }
%struct.anon.0 = type { i64, i64, i64, i64, i64, i64 }
%struct.anon.1 = type { i64, ptr }

@H5EA_init_g = global i8 0, align 1
@H5_libterm_g = external global i8, align 1
@.str = private unnamed_addr constant [98 x i8] c"generated/home/dtcxzyw/WorkSpace/Projects/compilers/llvm-opt-benchmark/bench/hdf5/hdf5/src/H5EA.c\00", align 1
@H5E_EARRAY_g = external global i64, align 8
@H5E_CANTPROTECT_g = external global i64, align 8
@H5E_CANTUNPROTECT_g = external global i64, align 8
@H5E_CANTDELETE_g = external global i64, align 8
@.str.11 = private unnamed_addr constant [34 x i8] c"unable to delete extensible array\00", align 1
@__func__.H5EA_delete = private unnamed_addr constant [12 x i8] c"H5EA_delete\00", align 1
@.str.12 = private unnamed_addr constant [58 x i8] c"unable to protect extensible array header, address = %llu\00", align 1
@.str.13 = private unnamed_addr constant [42 x i8] c"unable to release extensible array header\00", align 1

; Function Attrs: nounwind uwtable
define i32 @H5EA_delete(ptr noundef %0, i64 noundef %1, ptr noundef %2) #0 {
  %4 = alloca ptr, align 8
  %5 = alloca i64, align 8
  %6 = alloca ptr, align 8
  %7 = alloca ptr, align 8
  %8 = alloca i32, align 4
  %9 = alloca i8, align 1
  store ptr %0, ptr %4, align 8, !tbaa !3
  store i64 %1, ptr %5, align 8, !tbaa !17
  store ptr %2, ptr %6, align 8, !tbaa !10
  call void @llvm.lifetime.start.p0(i64 8, ptr %7) #6
  store ptr null, ptr %7, align 8, !tbaa !19
  call void @llvm.lifetime.start.p0(i64 4, ptr %8) #6
  store i32 0, ptr %8, align 4, !tbaa !43
  call void @llvm.lifetime.start.p0(i64 1, ptr %9) #6
  store i8 0, ptr %9, align 1, !tbaa !13
  %10 = load i8, ptr @H5EA_init_g, align 1, !tbaa !13, !range !15, !noundef !16
  %11 = trunc i8 %10 to i1
  br i1 %11, label %16, label %12

12:                                               ; preds = %3
  %13 = load i8, ptr @H5_libterm_g, align 1, !tbaa !13, !range !15, !noundef !16
  %14 = trunc i8 %13 to i1
  %15 = xor i1 %14, true
  br label %16

16:                                               ; preds = %12, %3
  %17 = phi i1 [ false, %3 ], [ %15, %12 ]
  %18 = xor i1 %17, true
  %19 = xor i1 %18, true
  %20 = zext i1 %19 to i32
  %21 = sext i32 %20 to i64
  %22 = call i64 @llvm.expect.i64(i64 %21, i64 0)
  %23 = icmp ne i64 %22, 0
  br i1 %23, label %24, label %25

24:                                               ; preds = %16
  store i8 1, ptr @H5EA_init_g, align 1, !tbaa !13
  br label %25

25:                                               ; preds = %24, %16
  %26 = load i8, ptr @H5EA_init_g, align 1, !tbaa !13, !range !15, !noundef !16
  %27 = trunc i8 %26 to i1
  br i1 %27, label %32, label %28

28:                                               ; preds = %25
  %29 = load i8, ptr @H5_libterm_g, align 1, !tbaa !13, !range !15, !noundef !16
  %30 = trunc i8 %29 to i1
  %31 = xor i1 %30, true
  br label %32

32:                                               ; preds = %28, %25
  %33 = phi i1 [ true, %25 ], [ %31, %28 ]
  %34 = xor i1 %33, true
  %35 = xor i1 %34, true
  %36 = zext i1 %35 to i32
  %37 = sext i32 %36 to i64
  %38 = call i64 @llvm.expect.i64(i64 %37, i64 1)
  %39 = icmp ne i64 %38, 0
  br i1 %39, label %40, label %126

40:                                               ; preds = %32
  %41 = load ptr, ptr %4, align 8, !tbaa !3
  %42 = load i64, ptr %5, align 8, !tbaa !17
  %43 = load ptr, ptr %6, align 8, !tbaa !10
  %44 = call ptr @H5EA__hdr_protect(ptr noundef %41, i64 noundef %42, ptr noundef %43, i32 noundef 0)
  store ptr %44, ptr %7, align 8, !tbaa !19
  %45 = icmp eq ptr null, %44
  br i1 %45, label %46, label %66

46:                                               ; preds = %40
  br label %47

47:                                               ; preds = %46
  br label %48

48:                                               ; preds = %47
  br label %49

49:                                               ; preds = %48
  %50 = load i64, ptr @H5E_EARRAY_g, align 8, !tbaa !17
  %51 = load i64, ptr @H5E_CANTPROTECT_g, align 8, !tbaa !17
  %52 = load i64, ptr %5, align 8, !tbaa !17
  %53 = call i32 (ptr, ptr, i32, i64, i64, ptr, ...) @H5E_printf_stack(ptr noundef @.str, ptr noundef @__func__.H5EA_delete, i32 noundef 932, i64 noundef %50, i64 noundef %51, ptr noundef @.str.12, i64 noundef %52)
  br label %54

54:                                               ; preds = %49
  br label %55

55:                                               ; preds = %54
  store i8 1, ptr %9, align 1, !tbaa !13
  %56 = load i8, ptr %9, align 1, !tbaa !13, !range !15, !noundef !16
  %57 = trunc i8 %56 to i1
  %58 = zext i1 %57 to i8
  store i8 %58, ptr %9, align 1, !tbaa !13
  br label %59

59:                                               ; preds = %55
  br label %60

60:                                               ; preds = %59
  br label %61

61:                                               ; preds = %60
  store i32 -1, ptr %8, align 4, !tbaa !43
  br label %102

62:                                               ; No predecessors!
  br label %63

63:                                               ; preds = %62
  br label %64

64:                                               ; preds = %63
  br label %65

65:                                               ; preds = %64
  br label %66

66:                                               ; preds = %65, %40
  %67 = load ptr, ptr %7, align 8, !tbaa !19
  %68 = getelementptr inbounds nuw %struct.H5EA_hdr_t, ptr %67, i32 0, i32 9
  %69 = load i64, ptr %68, align 8, !tbaa !97
  %70 = icmp ne i64 %69, 0
  br i1 %70, label %71, label %74

71:                                               ; preds = %66
  %72 = load ptr, ptr %7, align 8, !tbaa !19
  %73 = getelementptr inbounds nuw %struct.H5EA_hdr_t, ptr %72, i32 0, i32 10
  store i8 1, ptr %73, align 8, !tbaa !21
  br label %101

74:                                               ; preds = %66
  %75 = load ptr, ptr %4, align 8, !tbaa !3
  %76 = load ptr, ptr %7, align 8, !tbaa !19
  %77 = getelementptr inbounds nuw %struct.H5EA_hdr_t, ptr %76, i32 0, i32 8
  store ptr %75, ptr %77, align 8, !tbaa !44
  %78 = load ptr, ptr %7, align 8, !tbaa !19
  %79 = call i32 @H5EA__hdr_delete(ptr noundef %78)
  %80 = icmp slt i32 %79, 0
  br i1 %80, label %81, label %100

81:                                               ; preds = %74
  br label %82

82:                                               ; preds = %81
  br label %83

83:                                               ; preds = %82
  br label %84

84:                                               ; preds = %83
  %85 = load i64, ptr @H5E_EARRAY_g, align 8, !tbaa !17
  %86 = load i64, ptr @H5E_CANTDELETE_g, align 8, !tbaa !17
  %87 = call i32 (ptr, ptr, i32, i64, i64, ptr, ...) @H5E_printf_stack(ptr noundef @.str, ptr noundef @__func__.H5EA_delete, i32 noundef 943, i64 noundef %85, i64 noundef %86, ptr noundef @.str.11)
  br label %88

88:                                               ; preds = %84
  br label %89

89:                                               ; preds = %88
  store i8 1, ptr %9, align 1, !tbaa !13
  %90 = load i8, ptr %9, align 1, !tbaa !13, !range !15, !noundef !16
  %91 = trunc i8 %90 to i1
  %92 = zext i1 %91 to i8
  store i8 %92, ptr %9, align 1, !tbaa !13
  br label %93

93:                                               ; preds = %89
  br label %94

94:                                               ; preds = %93
  br label %95

95:                                               ; preds = %94
  store i32 -1, ptr %8, align 4, !tbaa !43
  br label %102

96:                                               ; No predecessors!
  br label %97

97:                                               ; preds = %96
  br label %98

98:                                               ; preds = %97
  br label %99

99:                                               ; preds = %98
  br label %100

100:                                              ; preds = %99, %74
  store ptr null, ptr %7, align 8, !tbaa !19
  br label %101

101:                                              ; preds = %100, %71
  br label %102

102:                                              ; preds = %101, %95, %61
  %103 = load ptr, ptr %7, align 8, !tbaa !19
  %104 = icmp ne ptr %103, null
  br i1 %104, label %105, label %125

105:                                              ; preds = %102
  %106 = load ptr, ptr %7, align 8, !tbaa !19
  %107 = call i32 @H5EA__hdr_unprotect(ptr noundef %106, i32 noundef 0)
  %108 = icmp slt i32 %107, 0
  br i1 %108, label %109, label %125

109:                                              ; preds = %105
  br label %110

110:                                              ; preds = %109
  br label %111

111:                                              ; preds = %110
  br label %112

112:                                              ; preds = %111
  %113 = load i64, ptr @H5E_EARRAY_g, align 8, !tbaa !17
  %114 = load i64, ptr @H5E_CANTUNPROTECT_g, align 8, !tbaa !17
  %115 = call i32 (ptr, ptr, i32, i64, i64, ptr, ...) @H5E_printf_stack(ptr noundef @.str, ptr noundef @__func__.H5EA_delete, i32 noundef 950, i64 noundef %113, i64 noundef %114, ptr noundef @.str.13)
  br label %116

116:                                              ; preds = %112
  br label %117

117:                                              ; preds = %116
  store i8 1, ptr %9, align 1, !tbaa !13
  %118 = load i8, ptr %9, align 1, !tbaa !13, !range !15, !noundef !16
  %119 = trunc i8 %118 to i1
  %120 = zext i1 %119 to i8
  store i8 %120, ptr %9, align 1, !tbaa !13
  br label %121

121:                                              ; preds = %117
  br label %122

122:                                              ; preds = %121
  store i32 -1, ptr %8, align 4, !tbaa !43
  br label %123

123:                                              ; preds = %122
  br label %124

124:                                              ; preds = %123
  br label %125

125:                                              ; preds = %124, %105, %102
  br label %126

126:                                              ; preds = %125, %32
  %127 = load i32, ptr %8, align 4, !tbaa !43
  call void @llvm.lifetime.end.p0(i64 1, ptr %9) #6
  call void @llvm.lifetime.end.p0(i64 4, ptr %8) #6
  call void @llvm.lifetime.end.p0(i64 8, ptr %7) #6
  ret i32 %127
}