; Function Attrs: nounwind uwtable
define range(i32 -1, 1) i32 @H5EA_delete(ptr noundef %0, i64 noundef %1, ptr noundef %2) local_unnamed_addr #0 {
  %4 = load i8, ptr @H5EA_init_g, align 1, !tbaa !3, !range !7, !noundef !8
  %5 = trunc nuw i8 %4 to i1
  %6 = load i8, ptr @H5_libterm_g, align 1, !range !7
  %7 = trunc nuw i8 %6 to i1
  %8 = select i1 %5, i1 true, i1 %7
  br i1 %8, label %9, label %.thread, !prof !9

.thread:                                          ; preds = %3
  store i8 1, ptr @H5EA_init_g, align 1, !tbaa !3
  br label %12

9:                                                ; preds = %3
  %10 = xor i1 %7, true
  %11 = select i1 %5, i1 true, i1 %10
  br i1 %11, label %12, label %.thread18, !prof !10

12:                                               ; preds = %.thread, %9
  %13 = tail call ptr @H5EA__hdr_protect(ptr noundef %0, i64 noundef %1, ptr noundef %2, i32 noundef 0) #5
  %14 = icmp eq ptr %13, null
  br i1 %14, label %15, label %19

15:                                               ; preds = %12
  %16 = load i64, ptr @H5E_EARRAY_g, align 8, !tbaa !11
  %17 = load i64, ptr @H5E_CANTPROTECT_g, align 8, !tbaa !11
  %18 = tail call i32 (ptr, ptr, i32, i64, i64, ptr, ...) @H5E_printf_stack(ptr noundef nonnull @.str, ptr noundef nonnull @__func__.H5EA_delete, i32 noundef 932, i64 noundef %16, i64 noundef %17, ptr noundef nonnull @.str.12, i64 noundef %1) #5
  br label %.thread18

19:                                               ; preds = %12
  %20 = getelementptr inbounds nuw i8, ptr %13, i64 392
  %21 = load i64, ptr %20, align 8, !tbaa !83
  %.not = icmp eq i64 %21, 0
  br i1 %.not, label %24, label %22

22:                                               ; preds = %19
  %23 = getelementptr inbounds nuw i8, ptr %13, i64 400
  store i8 1, ptr %23, align 8, !tbaa !13
  br label %32

24:                                               ; preds = %19
  %25 = getelementptr inbounds nuw i8, ptr %13, i64 384
  store ptr %0, ptr %25, align 8, !tbaa !38
  %26 = tail call i32 @H5EA__hdr_delete(ptr noundef nonnull %13) #5
  %27 = icmp slt i32 %26, 0
  br i1 %27, label %28, label %.thread18

28:                                               ; preds = %24
  %29 = load i64, ptr @H5E_EARRAY_g, align 8, !tbaa !11
  %30 = load i64, ptr @H5E_CANTDELETE_g, align 8, !tbaa !11
  %31 = tail call i32 (ptr, ptr, i32, i64, i64, ptr, ...) @H5E_printf_stack(ptr noundef nonnull @.str, ptr noundef nonnull @__func__.H5EA_delete, i32 noundef 943, i64 noundef %29, i64 noundef %30, ptr noundef nonnull @.str.11) #5
  br label %32

32:                                               ; preds = %28, %22
  %.1 = phi i32 [ 0, %22 ], [ -1, %28 ]
  %33 = tail call i32 @H5EA__hdr_unprotect(ptr noundef nonnull %13, i32 noundef 0) #5
  %34 = icmp slt i32 %33, 0
  br i1 %34, label %35, label %.thread18

35:                                               ; preds = %32
  %36 = load i64, ptr @H5E_EARRAY_g, align 8, !tbaa !11
  %37 = load i64, ptr @H5E_CANTUNPROTECT_g, align 8, !tbaa !11
  %38 = tail call i32 (ptr, ptr, i32, i64, i64, ptr, ...) @H5E_printf_stack(ptr noundef nonnull @.str, ptr noundef nonnull @__func__.H5EA_delete, i32 noundef 950, i64 noundef %36, i64 noundef %37, ptr noundef nonnull @.str.13) #5
  br label %.thread18

.thread18:                                        ; preds = %24, %15, %32, %35, %9
  %.0 = phi i32 [ -1, %35 ], [ %.1, %32 ], [ 0, %9 ], [ 0, %24 ], [ -1, %15 ]
  ret i32 %.0
}